; Function Attrs: null_pointer_is_valid sspstrong uwtable
define internal noundef zeroext i1 @ssi_23_2(ptr noundef %0, ptr noundef %1, ptr readnone captures(none) %2, i32 noundef %3, i32 %4, i32 %5) #0 {
  %7 = icmp eq i32 %3, 3
  br i1 %7, label %8, label %15

8:                                                ; preds = %6
  %9 = load i32, ptr @ett_ipmi_se_evt_evd_byte2, align 4
  %10 = tail call ptr @proto_tree_add_subtree(ptr noundef %0, ptr noundef %1, i32 noundef 0, i32 noundef 1, i32 noundef %9, ptr noundef null, ptr noundef nonnull @.str.994)
  %11 = load i32, ptr @hf_ipmi_se_23_interrupt_type, align 4
  %12 = tail call ptr @proto_tree_add_item(ptr noundef %10, i32 noundef %11, ptr noundef %1, i32 noundef 0, i32 noundef 1, i32 noundef -2147483648)
  %13 = load i32, ptr @hf_ipmi_se_23_timer_use_at_expiration, align 4
  %14 = tail call ptr @proto_tree_add_item(ptr noundef %10, i32 noundef %13, ptr noundef %1, i32 noundef 0, i32 noundef 1, i32 noundef -2147483648)
  br label %15

15:                                               ; preds = %6, %8
  ret i1 %7
}